target datalayout = "e-m:e-p270:32:32-p271:32:32-p272:64:64-i64:64-i128:128-f80:128-n8:16:32:64-S128"
target triple = "x86_64-pc-linux-gnu"

%struct.RBasic = type { i64, i64 }

@rb_cObject = external global i64, align 8

; Function Attrs: inlinehint nounwind sspstrong willreturn memory(read) uwtable
define internal i32 @RB_BUILTIN_TYPE(i64 noundef %0) #2 {
  %2 = alloca i64, align 8
  %3 = alloca i64, align 8
  store i64 %0, ptr %2, align 8, !tbaa !14
  call void @llvm.lifetime.start.p0(i64 8, ptr %3) #30
  %4 = load i64, ptr %2, align 8, !tbaa !14
  %5 = inttoptr i64 %4 to ptr
  %6 = getelementptr inbounds nuw %struct.RBasic, ptr %5, i32 0, i32 0
  %7 = load i64, ptr %6, align 8, !tbaa !102
  %8 = and i64 %7, 31
  store i64 %8, ptr %3, align 8, !tbaa !14
  %9 = load i64, ptr %3, align 8, !tbaa !14
  %10 = trunc i64 %9 to i32
  call void @llvm.lifetime.end.p0(i64 8, ptr %3) #30
  ret i32 %10
}

; Function Attrs: inlinehint nounwind sspstrong willreturn memory(none) uwtable
define internal zeroext i1 @RB_NIL_P(i64 noundef %0) #5 {
  %2 = alloca i64, align 8
  store i64 %0, ptr %2, align 8, !tbaa !14
  %3 = load i64, ptr %2, align 8, !tbaa !14
  %4 = icmp eq i64 %3, 4
  ret i1 %4
}

; Function Attrs: nounwind sspstrong uwtable
define internal i64 @rb_const_location(i64 noundef %0, i64 noundef %1, i32 noundef %2, i32 noundef %3, i32 noundef %4) #0 {
  %6 = alloca i64, align 8
  %7 = alloca i64, align 8
  %8 = alloca i64, align 8
  %9 = alloca i32, align 4
  %10 = alloca i32, align 4
  %11 = alloca i32, align 4
  %12 = alloca i64, align 8
  %13 = alloca i32, align 4
  store i64 %0, ptr %7, align 8, !tbaa !14
  store i64 %1, ptr %8, align 8, !tbaa !14
  store i32 %2, ptr %9, align 4, !tbaa !51
  store i32 %3, ptr %10, align 4, !tbaa !51
  store i32 %4, ptr %11, align 4, !tbaa !51
  call void @llvm.lifetime.start.p0(i64 8, ptr %12) #30
  %14 = load i64, ptr %7, align 8, !tbaa !14
  %15 = load i64, ptr @rb_cObject, align 8, !tbaa !14
  %16 = icmp eq i64 %14, %15
  br i1 %16, label %17, label %18

17:                                               ; preds = %5
  store i32 0, ptr %9, align 4, !tbaa !51
  br label %18

18:                                               ; preds = %17, %5
  %19 = load i64, ptr %7, align 8, !tbaa !14
  %20 = load i64, ptr %8, align 8, !tbaa !14
  %21 = load i32, ptr %9, align 4, !tbaa !51
  %22 = load i32, ptr %10, align 4, !tbaa !51
  %23 = load i32, ptr %11, align 4, !tbaa !51
  %24 = call i64 @rb_const_location_from(i64 noundef %19, i64 noundef %20, i32 noundef %21, i32 noundef %22, i32 noundef %23)
  store i64 %24, ptr %12, align 8, !tbaa !14
  %25 = load i64, ptr %12, align 8, !tbaa !14
  %26 = call zeroext i1 @RB_NIL_P(i64 noundef %25) #32
  br i1 %26, label %29, label %27

27:                                               ; preds = %18
  %28 = load i64, ptr %12, align 8, !tbaa !14
  store i64 %28, ptr %6, align 8
  store i32 1, ptr %13, align 4
  br label %46

29:                                               ; preds = %18
  %30 = load i32, ptr %9, align 4, !tbaa !51
  %31 = icmp ne i32 %30, 0
  br i1 %31, label %32, label %34

32:                                               ; preds = %29
  %33 = load i64, ptr %12, align 8, !tbaa !14
  store i64 %33, ptr %6, align 8
  store i32 1, ptr %13, align 4
  br label %46

34:                                               ; preds = %29
  %35 = load i64, ptr %7, align 8, !tbaa !14
  %36 = call i32 @RB_BUILTIN_TYPE(i64 noundef %35) #29
  %37 = icmp ne i32 %36, 3
  br i1 %37, label %38, label %40

38:                                               ; preds = %34
  %39 = load i64, ptr %12, align 8, !tbaa !14
  store i64 %39, ptr %6, align 8
  store i32 1, ptr %13, align 4
  br label %46

40:                                               ; preds = %34
  %41 = load i64, ptr @rb_cObject, align 8, !tbaa !14
  %42 = load i64, ptr %8, align 8, !tbaa !14
  %43 = load i32, ptr %10, align 4, !tbaa !51
  %44 = load i32, ptr %11, align 4, !tbaa !51
  %45 = call i64 @rb_const_location_from(i64 noundef %41, i64 noundef %42, i32 noundef 0, i32 noundef %43, i32 noundef %44)
  store i64 %45, ptr %6, align 8
  store i32 1, ptr %13, align 4
  br label %46

46:                                               ; preds = %40, %38, %32, %27
  call void @llvm.lifetime.end.p0(i64 8, ptr %12) #30
  %47 = load i64, ptr %6, align 8
  ret i64 %47
}

; Function Attrs: nounwind sspstrong uwtable
define hidden i64 @rb_const_source_location_at(i64 noundef %0, i64 noundef %1) #0 {
  %3 = alloca i64, align 8
  %4 = alloca i64, align 8
  store i64 %0, ptr %3, align 8, !tbaa !14
  store i64 %1, ptr %4, align 8, !tbaa !14
  %5 = load i64, ptr %3, align 8, !tbaa !14
  %6 = load i64, ptr %4, align 8, !tbaa !14
  %7 = call i64 @rb_const_location(i64 noundef %5, i64 noundef %6, i32 noundef 1, i32 noundef 0, i32 noundef 0)
  ret i64 %7
}