; Function Attrs: nounwind sspstrong uwtable
define hidden i64 @rb_const_source_location_at(i64 noundef %0, i64 noundef %1) local_unnamed_addr #0 {
  %3 = load i64, ptr @rb_cObject, align 8, !tbaa !14
  %4 = icmp eq i64 %0, %3
  %not. = xor i1 %4, true
  %spec.select.i = zext i1 %not. to i32
  %5 = tail call fastcc i64 @rb_const_location_from(i64 noundef %0, i64 noundef %1, i32 noundef %spec.select.i, i32 noundef 0)
  %6 = icmp eq i64 %5, 4
  %or.cond.i = and i1 %4, %6
  br i1 %or.cond.i, label %7, label %rb_const_location.exit

7:                                                ; preds = %2
  %8 = inttoptr i64 %0 to ptr
  %9 = load i64, ptr %8, align 8, !tbaa !28
  %10 = and i64 %9, 31
  %.not17.i = icmp eq i64 %10, 3
  br i1 %.not17.i, label %11, label %rb_const_location.exit

11:                                               ; preds = %7
  %12 = load i64, ptr @rb_cObject, align 8, !tbaa !14
  %13 = tail call fastcc i64 @rb_const_location_from(i64 noundef %12, i64 noundef %1, i32 noundef 0, i32 noundef 0)
  br label %rb_const_location.exit

rb_const_location.exit:                           ; preds = %2, %7, %11
  %.0.i = phi i64 [ %13, %11 ], [ %5, %2 ], [ 4, %7 ]
  ret i64 %.0.i
}